; Function Attrs: mustprogress uwtable
define i32 @uloc_countAvailable_77() local_unnamed_addr #0 personality ptr @__gxx_personality_v0 {
  %1 = alloca %"class.icu_77::ErrorCode", align 8
  call void @llvm.lifetime.start.p0(i64 16, ptr nonnull %1) #14
  store ptr getelementptr inbounds nuw inrange(-16, 24) (i8, ptr @_ZTVN6icu_779ErrorCodeE, i64 16), ptr %1, align 8, !tbaa !3
  %2 = getelementptr inbounds nuw i8, ptr %1, i64 8
  store i32 0, ptr %2, align 8, !tbaa !6
  invoke fastcc void @_ZN12_GLOBAL__N_122_load_installedLocalesER10UErrorCode(ptr noundef nonnull align 4 dereferenceable(4) %2)
          to label %3 unwind label %6

3:                                                ; preds = %0
  %4 = load i32, ptr %2, align 8, !tbaa !6
  %5 = load i32, ptr @_ZN12_GLOBAL__N_122gAvailableLocaleCountsE, align 4
  %.inv = icmp sgt i32 %4, 0
  %.0 = select i1 %.inv, i32 0, i32 %5
  call void @_ZN6icu_779ErrorCodeD1Ev(ptr noundef nonnull align 8 dereferenceable(12) %1) #14
  call void @llvm.lifetime.end.p0(i64 16, ptr nonnull %1) #14
  ret i32 %.0

6:                                                ; preds = %0
  %7 = landingpad { ptr, i32 }
          cleanup
  call void @_ZN6icu_779ErrorCodeD1Ev(ptr noundef nonnull align 8 dereferenceable(12) %1) #14
  call void @llvm.lifetime.end.p0(i64 16, ptr nonnull %1) #14
  resume { ptr, i32 } %7
}